target datalayout = "e-m:e-p270:32:32-p271:32:32-p272:64:64-i64:64-i128:128-f80:128-n8:16:32:64-S128"
target triple = "x86_64-pc-linux-gnu"

%struct.job_record = type { i32, ptr, ptr, ptr, ptr, i16, i32, i32, i32, ptr, i32, ptr, ptr, i16, ptr, double, i64, ptr, ptr, ptr, ptr, ptr, ptr, i32, ptr, i32, i64, i64, i32, i32, ptr, i16, i64, i64, i8, i32, ptr, ptr, ptr, ptr, ptr, ptr, ptr, ptr, i32, ptr, ptr, i32, ptr, i32, ptr, i32, ptr, i32, ptr, ptr, ptr, ptr, ptr, ptr, i32, i16, i64, ptr, ptr, ptr, ptr, %struct.acct_policy_limit_set_t, i16, ptr, ptr, ptr, ptr, ptr, i32, ptr, ptr, ptr, ptr, ptr, i32, i32, ptr, ptr, ptr, i16, ptr, ptr, i8, ptr, ptr, i64, i64, i8, i32, i32, i8, i32, ptr, i32, i64, i32, ptr, ptr, ptr, i8, i16, i64, i32, ptr, ptr, ptr, ptr, ptr, i16, i32, ptr, ptr, ptr, ptr, i32, ptr, i32, i16, i64, ptr, i32, i32, ptr, i64, ptr, ptr, i64, i32, i32, i64, i32, i32, ptr, ptr, ptr, ptr, ptr, ptr, ptr, ptr, ptr, ptr, ptr, ptr, i32, ptr, i16, i16, i16, i16, ptr, i32, i32, i8, i64 }
%struct.acct_policy_limit_set_t = type { i16, i16, ptr }
%struct.slurmdb_wckey_rec_t = type { ptr, ptr, i32, i32, i16, ptr, i32, ptr }

@acct_db_conn = external global ptr, align 8
@accounting_enforce = external global i16, align 2
@last_job_update = dso_local global i64 0, align 8
@.str.220 = private unnamed_addr constant [50 x i8] c"%s: attempt to modify account for non-pending %pJ\00", align 1
@.str.221 = private unnamed_addr constant [29 x i8] c"%s: invalid wckey %s for %pJ\00", align 1
@.str.223 = private unnamed_addr constant [32 x i8] c"%s: setting wckey to %s for %pJ\00", align 1
@.str.224 = private unnamed_addr constant [26 x i8] c"%s: cleared wckey for %pJ\00", align 1

; Function Attrs: nounwind uwtable
define dso_local i32 @update_job_wckey(ptr noundef %0, ptr noundef %1, ptr noundef %2) #0 {
  %4 = alloca i32, align 4
  %5 = alloca ptr, align 8
  %6 = alloca ptr, align 8
  %7 = alloca ptr, align 8
  %8 = alloca %struct.slurmdb_wckey_rec_t, align 8
  %9 = alloca ptr, align 8
  %10 = alloca i32, align 4
  store ptr %0, ptr %5, align 8
  store ptr %1, ptr %6, align 8
  store ptr %2, ptr %7, align 8
  call void @llvm.lifetime.start.p0(i64 56, ptr %8) #13
  call void @llvm.lifetime.start.p0(i64 8, ptr %9) #13
  %11 = load ptr, ptr %6, align 8
  %12 = getelementptr inbounds nuw %struct.job_record, ptr %11, i32 0, i32 60
  %13 = load i32, ptr %12, align 8
  %14 = and i32 %13, 255
  %15 = icmp eq i32 %14, 0
  br i1 %15, label %16, label %21

16:                                               ; preds = %3
  %17 = load ptr, ptr %6, align 8
  %18 = getelementptr inbounds nuw %struct.job_record, ptr %17, i32 0, i32 30
  %19 = load ptr, ptr %18, align 8
  %20 = icmp eq ptr %19, null
  br i1 %20, label %21, label %34

21:                                               ; preds = %16, %3
  br label %22

22:                                               ; preds = %21
  br label %23

23:                                               ; preds = %22
  %24 = call i32 @get_log_level()
  %25 = icmp sge i32 %24, 3
  br i1 %25, label %26, label %29

26:                                               ; preds = %23
  %27 = load ptr, ptr %5, align 8
  %28 = load ptr, ptr %6, align 8
  call void (i32, ptr, ...) @log_var(i32 noundef 3, ptr noundef @.str.220, ptr noundef %27, ptr noundef %28)
  br label %29

29:                                               ; preds = %26, %23
  br label %30

30:                                               ; preds = %29
  br label %31

31:                                               ; preds = %30
  br label %32

32:                                               ; preds = %31
  br label %33

33:                                               ; preds = %32
  store i32 2073, ptr %4, align 4
  store i32 1, ptr %10, align 4
  br label %146

34:                                               ; preds = %16
  call void @llvm.memset.p0.i64(ptr align 8 %8, i8 0, i64 56, i1 false)
  %35 = load ptr, ptr %6, align 8
  %36 = getelementptr inbounds nuw %struct.job_record, ptr %35, i32 0, i32 150
  %37 = load i32, ptr %36, align 8
  %38 = getelementptr inbounds nuw %struct.slurmdb_wckey_rec_t, ptr %8, i32 0, i32 6
  store i32 %37, ptr %38, align 8
  %39 = load ptr, ptr %7, align 8
  %40 = getelementptr inbounds nuw %struct.slurmdb_wckey_rec_t, ptr %8, i32 0, i32 5
  store ptr %39, ptr %40, align 8
  %41 = load ptr, ptr @acct_db_conn, align 8
  %42 = load i16, ptr @accounting_enforce, align 2
  %43 = zext i16 %42 to i32
  %44 = call i32 @assoc_mgr_fill_in_wckey(ptr noundef %41, ptr noundef %8, i32 noundef %43, ptr noundef %9, i1 noundef zeroext false)
  %45 = icmp ne i32 %44, 0
  br i1 %45, label %46, label %60

46:                                               ; preds = %34
  br label %47

47:                                               ; preds = %46
  br label %48

48:                                               ; preds = %47
  %49 = call i32 @get_log_level()
  %50 = icmp sge i32 %49, 3
  br i1 %50, label %51, label %55

51:                                               ; preds = %48
  %52 = load ptr, ptr %5, align 8
  %53 = load ptr, ptr %7, align 8
  %54 = load ptr, ptr %6, align 8
  call void (i32, ptr, ...) @log_var(i32 noundef 3, ptr noundef @.str.221, ptr noundef %52, ptr noundef %53, ptr noundef %54)
  br label %55

55:                                               ; preds = %51, %48
  br label %56

56:                                               ; preds = %55
  br label %57

57:                                               ; preds = %56
  br label %58

58:                                               ; preds = %57
  br label %59

59:                                               ; preds = %58
  store i32 2057, ptr %4, align 4
  store i32 1, ptr %10, align 4
  br label %146

60:                                               ; preds = %34
  %61 = call zeroext i1 @slurm_with_slurmdbd()
  br i1 %61, label %62, label %97

62:                                               ; preds = %60
  %63 = load ptr, ptr %9, align 8
  %64 = icmp ne ptr %63, null
  br i1 %64, label %97, label %65

65:                                               ; preds = %62
  %66 = load i16, ptr @accounting_enforce, align 2
  %67 = zext i16 %66 to i64
  %68 = and i64 %67, 4
  %69 = icmp ne i64 %68, 0
  br i1 %69, label %97, label %70

70:                                               ; preds = %65
  %71 = getelementptr inbounds nuw %struct.slurmdb_wckey_rec_t, ptr %8, i32 0, i32 5
  store ptr null, ptr %71, align 8
  %72 = load ptr, ptr @acct_db_conn, align 8
  %73 = load i16, ptr @accounting_enforce, align 2
  %74 = zext i16 %73 to i32
  %75 = call i32 @assoc_mgr_fill_in_wckey(ptr noundef %72, ptr noundef %8, i32 noundef %74, ptr noundef %9, i1 noundef zeroext false)
  %76 = load ptr, ptr %9, align 8
  %77 = icmp ne ptr %76, null
  br i1 %77, label %96, label %78

78:                                               ; preds = %70
  br label %79

79:                                               ; preds = %78
  br label %80

80:                                               ; preds = %79
  %81 = call i32 @get_log_level()
  %82 = icmp sge i32 %81, 5
  br i1 %82, label %83, label %89

83:                                               ; preds = %80
  %84 = load ptr, ptr %5, align 8
  %85 = load ptr, ptr %7, align 8
  %86 = load ptr, ptr %6, align 8
  %87 = getelementptr inbounds nuw %struct.job_record, ptr %86, i32 0, i32 150
  %88 = load i32, ptr %87, align 8
  call void (i32, ptr, ...) @log_var(i32 noundef 5, ptr noundef @.str.222, ptr noundef %84, ptr noundef %85, i32 noundef %88)
  br label %89

89:                                               ; preds = %83, %80
  br label %90

90:                                               ; preds = %89
  br label %91

91:                                               ; preds = %90
  br label %92

92:                                               ; preds = %91
  br label %93

93:                                               ; preds = %92
  %94 = load ptr, ptr %7, align 8
  %95 = getelementptr inbounds nuw %struct.slurmdb_wckey_rec_t, ptr %8, i32 0, i32 5
  store ptr %94, ptr %95, align 8
  br label %96

96:                                               ; preds = %93, %70
  br label %97

97:                                               ; preds = %96, %65, %62, %60
  br label %98

98:                                               ; preds = %97
  %99 = load ptr, ptr %6, align 8
  %100 = getelementptr inbounds nuw %struct.job_record, ptr %99, i32 0, i32 156
  call void @slurm_xfree(ptr noundef %100)
  %101 = getelementptr inbounds nuw %struct.slurmdb_wckey_rec_t, ptr %8, i32 0, i32 5
  %102 = load ptr, ptr %101, align 8
  %103 = icmp ne ptr %102, null
  br i1 %103, label %104, label %131

104:                                              ; preds = %98
  %105 = getelementptr inbounds nuw %struct.slurmdb_wckey_rec_t, ptr %8, i32 0, i32 5
  %106 = load ptr, ptr %105, align 8
  %107 = getelementptr inbounds i8, ptr %106, i64 0
  %108 = load i8, ptr %107, align 1
  %109 = sext i8 %108 to i32
  %110 = icmp ne i32 %109, 0
  br i1 %110, label %111, label %131

111:                                              ; preds = %104
  %112 = getelementptr inbounds nuw %struct.slurmdb_wckey_rec_t, ptr %8, i32 0, i32 5
  %113 = load ptr, ptr %112, align 8
  %114 = call ptr @xstrdup(ptr noundef %113)
  %115 = load ptr, ptr %6, align 8
  %116 = getelementptr inbounds nuw %struct.job_record, ptr %115, i32 0, i32 156
  store ptr %114, ptr %116, align 8
  br label %117

117:                                              ; preds = %111
  br label %118

118:                                              ; preds = %117
  %119 = call i32 @get_log_level()
  %120 = icmp sge i32 %119, 3
  br i1 %120, label %121, label %126

121:                                              ; preds = %118
  %122 = load ptr, ptr %5, align 8
  %123 = getelementptr inbounds nuw %struct.slurmdb_wckey_rec_t, ptr %8, i32 0, i32 5
  %124 = load ptr, ptr %123, align 8
  %125 = load ptr, ptr %6, align 8
  call void (i32, ptr, ...) @log_var(i32 noundef 3, ptr noundef @.str.223, ptr noundef %122, ptr noundef %124, ptr noundef %125)
  br label %126

126:                                              ; preds = %121, %118
  br label %127

127:                                              ; preds = %126
  br label %128

128:                                              ; preds = %127
  br label %129

129:                                              ; preds = %128
  br label %130

130:                                              ; preds = %129
  br label %144

131:                                              ; preds = %104, %98
  br label %132

132:                                              ; preds = %131
  br label %133

133:                                              ; preds = %132
  %134 = call i32 @get_log_level()
  %135 = icmp sge i32 %134, 3
  br i1 %135, label %136, label %139

136:                                              ; preds = %133
  %137 = load ptr, ptr %5, align 8
  %138 = load ptr, ptr %6, align 8
  call void (i32, ptr, ...) @log_var(i32 noundef 3, ptr noundef @.str.224, ptr noundef %137, ptr noundef %138)
  br label %139

139:                                              ; preds = %136, %133
  br label %140

140:                                              ; preds = %139
  br label %141

141:                                              ; preds = %140
  br label %142

142:                                              ; preds = %141
  br label %143

143:                                              ; preds = %142
  br label %144

144:                                              ; preds = %143, %130
  %145 = call i64 @time(ptr noundef null) #13
  store i64 %145, ptr @last_job_update, align 8
  store i32 0, ptr %4, align 4
  store i32 1, ptr %10, align 4
  br label %146

146:                                              ; preds = %144, %59, %33
  call void @llvm.lifetime.end.p0(i64 8, ptr %9) #13
  call void @llvm.lifetime.end.p0(i64 56, ptr %8) #13
  %147 = load i32, ptr %4, align 4
  ret i32 %147
}