; Function Attrs: nounwind uwtable
define dso_local range(i32 0, 2074) i32 @update_job_wckey(ptr noundef %0, ptr noundef %1, ptr noundef %2) local_unnamed_addr #0 {
  %4 = alloca %struct.slurmdb_wckey_rec_t, align 8
  %5 = alloca ptr, align 8
  call void @llvm.lifetime.start.p0(i64 56, ptr nonnull %4) #27
  call void @llvm.lifetime.start.p0(i64 8, ptr nonnull %5) #27
  %6 = getelementptr inbounds nuw i8, ptr %1, i64 448
  %7 = load i32, ptr %6, align 8
  %8 = and i32 %7, 255
  %9 = icmp eq i32 %8, 0
  br i1 %9, label %10, label %14

10:                                               ; preds = %3
  %11 = getelementptr inbounds nuw i8, ptr %1, i64 216
  %12 = load ptr, ptr %11, align 8
  %13 = icmp eq ptr %12, null
  br i1 %13, label %14, label %18

14:                                               ; preds = %10, %3
  %15 = tail call i32 @get_log_level() #27
  %16 = icmp sgt i32 %15, 2
  br i1 %16, label %17, label %66

17:                                               ; preds = %14
  tail call void (i32, ptr, ...) @log_var(i32 noundef 3, ptr noundef nonnull @.str.220, ptr noundef %0, ptr noundef nonnull %1) #27
  br label %66

18:                                               ; preds = %10
  call void @llvm.memset.p0.i64(ptr noundef nonnull align 8 dereferenceable(56) %4, i8 0, i64 56, i1 false)
  %19 = getelementptr inbounds nuw i8, ptr %1, i64 1096
  %20 = load i32, ptr %19, align 8
  %21 = getelementptr inbounds nuw i8, ptr %4, i64 40
  store i32 %20, ptr %21, align 8
  %22 = getelementptr inbounds nuw i8, ptr %4, i64 32
  store ptr %2, ptr %22, align 8
  %23 = load ptr, ptr @acct_db_conn, align 8
  %24 = load i16, ptr @accounting_enforce, align 2
  %25 = zext i16 %24 to i32
  %26 = call i32 @assoc_mgr_fill_in_wckey(ptr noundef %23, ptr noundef nonnull %4, i32 noundef %25, ptr noundef nonnull %5, i1 noundef zeroext false) #27
  %.not21 = icmp eq i32 %26, 0
  br i1 %.not21, label %31, label %27

27:                                               ; preds = %18
  %28 = call i32 @get_log_level() #27
  %29 = icmp sgt i32 %28, 2
  br i1 %29, label %30, label %66

30:                                               ; preds = %27
  call void (i32, ptr, ...) @log_var(i32 noundef 3, ptr noundef nonnull @.str.221, ptr noundef %0, ptr noundef %2, ptr noundef nonnull %1) #27
  br label %66

31:                                               ; preds = %18
  %32 = call zeroext i1 @slurm_with_slurmdbd() #27
  %33 = load ptr, ptr %5, align 8
  %34 = icmp eq ptr %33, null
  %or.cond.not = select i1 %32, i1 %34, i1 false
  br i1 %or.cond.not, label %35, label %49

35:                                               ; preds = %31
  %36 = load i16, ptr @accounting_enforce, align 2
  %37 = and i16 %36, 4
  %.not = icmp eq i16 %37, 0
  br i1 %.not, label %38, label %49

38:                                               ; preds = %35
  store ptr null, ptr %22, align 8
  %39 = load ptr, ptr @acct_db_conn, align 8
  %40 = zext i16 %36 to i32
  %41 = call i32 @assoc_mgr_fill_in_wckey(ptr noundef %39, ptr noundef nonnull %4, i32 noundef %40, ptr noundef nonnull %5, i1 noundef zeroext false) #27
  %42 = load ptr, ptr %5, align 8
  %.not23 = icmp eq ptr %42, null
  br i1 %.not23, label %43, label %49

43:                                               ; preds = %38
  %44 = call i32 @get_log_level() #27
  %45 = icmp sgt i32 %44, 4
  br i1 %45, label %46, label %48

46:                                               ; preds = %43
  %47 = load i32, ptr %19, align 8
  call void (i32, ptr, ...) @log_var(i32 noundef 5, ptr noundef nonnull @.str.222, ptr noundef %0, ptr noundef %2, i32 noundef %47) #27
  br label %48

48:                                               ; preds = %46, %43
  store ptr %2, ptr %22, align 8
  br label %49

49:                                               ; preds = %31, %35, %48, %38
  %50 = getelementptr inbounds nuw i8, ptr %1, i64 1120
  call void @slurm_xfree(ptr noundef nonnull %50) #27
  %51 = load ptr, ptr %22, align 8
  %.not24 = icmp eq ptr %51, null
  br i1 %.not24, label %60, label %52

52:                                               ; preds = %49
  %53 = load i8, ptr %51, align 1
  %.not25 = icmp eq i8 %53, 0
  br i1 %.not25, label %60, label %54

54:                                               ; preds = %52
  %55 = call ptr @xstrdup(ptr noundef nonnull %51) #27
  store ptr %55, ptr %50, align 8
  %56 = call i32 @get_log_level() #27
  %57 = icmp sgt i32 %56, 2
  br i1 %57, label %58, label %64

58:                                               ; preds = %54
  %59 = load ptr, ptr %22, align 8
  call void (i32, ptr, ...) @log_var(i32 noundef 3, ptr noundef nonnull @.str.223, ptr noundef %0, ptr noundef %59, ptr noundef nonnull %1) #27
  br label %64

60:                                               ; preds = %52, %49
  %61 = call i32 @get_log_level() #27
  %62 = icmp sgt i32 %61, 2
  br i1 %62, label %63, label %64

63:                                               ; preds = %60
  call void (i32, ptr, ...) @log_var(i32 noundef 3, ptr noundef nonnull @.str.224, ptr noundef %0, ptr noundef nonnull %1) #27
  br label %64

64:                                               ; preds = %60, %63, %54, %58
  %65 = call i64 @time(ptr noundef null) #27
  store i64 %65, ptr @last_job_update, align 8
  br label %66

66:                                               ; preds = %27, %30, %14, %17, %64
  %.0 = phi i32 [ 0, %64 ], [ 2073, %17 ], [ 2073, %14 ], [ 2057, %30 ], [ 2057, %27 ]
  call void @llvm.lifetime.end.p0(i64 8, ptr nonnull %5) #27
  call void @llvm.lifetime.end.p0(i64 56, ptr nonnull %4) #27
  ret i32 %.0
}